target datalayout = "e-m:e-p270:32:32-p271:32:32-p272:64:64-i64:64-i128:128-f80:128-n8:16:32:64-S128"
target triple = "x86_64-pc-linux-gnu"

@.str = private unnamed_addr constant [5 x i8] c"typ1\00", align 1
@.str.1 = private unnamed_addr constant [5 x i8] c"OTTO\00", align 1
@.str.2 = private unnamed_addr constant [5 x i8] c"true\00", align 1

; Function Attrs: nounwind uwtable
define i32 @stbtt__isfont(ptr noundef %0) #0 {
  %2 = alloca i32, align 4
  %3 = alloca ptr, align 8
  store ptr %0, ptr %3, align 8, !tbaa !25
  %4 = load ptr, ptr %3, align 8, !tbaa !25
  %5 = getelementptr inbounds i8, ptr %4, i64 0
  %6 = load i8, ptr %5, align 1, !tbaa !13
  %7 = zext i8 %6 to i32
  %8 = icmp eq i32 %7, 49
  br i1 %8, label %9, label %28

9:                                                ; preds = %1
  %10 = load ptr, ptr %3, align 8, !tbaa !25
  %11 = getelementptr inbounds i8, ptr %10, i64 1
  %12 = load i8, ptr %11, align 1, !tbaa !13
  %13 = zext i8 %12 to i32
  %14 = icmp eq i32 %13, 0
  br i1 %14, label %15, label %28

15:                                               ; preds = %9
  %16 = load ptr, ptr %3, align 8, !tbaa !25
  %17 = getelementptr inbounds i8, ptr %16, i64 2
  %18 = load i8, ptr %17, align 1, !tbaa !13
  %19 = zext i8 %18 to i32
  %20 = icmp eq i32 %19, 0
  br i1 %20, label %21, label %28

21:                                               ; preds = %15
  %22 = load ptr, ptr %3, align 8, !tbaa !25
  %23 = getelementptr inbounds i8, ptr %22, i64 3
  %24 = load i8, ptr %23, align 1, !tbaa !13
  %25 = zext i8 %24 to i32
  %26 = icmp eq i32 %25, 0
  br i1 %26, label %27, label %28

27:                                               ; preds = %21
  store i32 1, ptr %2, align 4
  br label %153

28:                                               ; preds = %21, %15, %9, %1
  %29 = load ptr, ptr %3, align 8, !tbaa !25
  %30 = getelementptr inbounds i8, ptr %29, i64 0
  %31 = load i8, ptr %30, align 1, !tbaa !13
  %32 = zext i8 %31 to i32
  %33 = load i8, ptr @.str, align 1, !tbaa !13
  %34 = sext i8 %33 to i32
  %35 = icmp eq i32 %32, %34
  br i1 %35, label %36, label %61

36:                                               ; preds = %28
  %37 = load ptr, ptr %3, align 8, !tbaa !25
  %38 = getelementptr inbounds i8, ptr %37, i64 1
  %39 = load i8, ptr %38, align 1, !tbaa !13
  %40 = zext i8 %39 to i32
  %41 = load i8, ptr getelementptr inbounds ([5 x i8], ptr @.str, i64 0, i64 1), align 1, !tbaa !13
  %42 = sext i8 %41 to i32
  %43 = icmp eq i32 %40, %42
  br i1 %43, label %44, label %61

44:                                               ; preds = %36
  %45 = load ptr, ptr %3, align 8, !tbaa !25
  %46 = getelementptr inbounds i8, ptr %45, i64 2
  %47 = load i8, ptr %46, align 1, !tbaa !13
  %48 = zext i8 %47 to i32
  %49 = load i8, ptr getelementptr inbounds ([5 x i8], ptr @.str, i64 0, i64 2), align 1, !tbaa !13
  %50 = sext i8 %49 to i32
  %51 = icmp eq i32 %48, %50
  br i1 %51, label %52, label %61

52:                                               ; preds = %44
  %53 = load ptr, ptr %3, align 8, !tbaa !25
  %54 = getelementptr inbounds i8, ptr %53, i64 3
  %55 = load i8, ptr %54, align 1, !tbaa !13
  %56 = zext i8 %55 to i32
  %57 = load i8, ptr getelementptr inbounds ([5 x i8], ptr @.str, i64 0, i64 3), align 1, !tbaa !13
  %58 = sext i8 %57 to i32
  %59 = icmp eq i32 %56, %58
  br i1 %59, label %60, label %61

60:                                               ; preds = %52
  store i32 1, ptr %2, align 4
  br label %153

61:                                               ; preds = %52, %44, %36, %28
  %62 = load ptr, ptr %3, align 8, !tbaa !25
  %63 = getelementptr inbounds i8, ptr %62, i64 0
  %64 = load i8, ptr %63, align 1, !tbaa !13
  %65 = zext i8 %64 to i32
  %66 = load i8, ptr @.str.1, align 1, !tbaa !13
  %67 = sext i8 %66 to i32
  %68 = icmp eq i32 %65, %67
  br i1 %68, label %69, label %94

69:                                               ; preds = %61
  %70 = load ptr, ptr %3, align 8, !tbaa !25
  %71 = getelementptr inbounds i8, ptr %70, i64 1
  %72 = load i8, ptr %71, align 1, !tbaa !13
  %73 = zext i8 %72 to i32
  %74 = load i8, ptr getelementptr inbounds ([5 x i8], ptr @.str.1, i64 0, i64 1), align 1, !tbaa !13
  %75 = sext i8 %74 to i32
  %76 = icmp eq i32 %73, %75
  br i1 %76, label %77, label %94

77:                                               ; preds = %69
  %78 = load ptr, ptr %3, align 8, !tbaa !25
  %79 = getelementptr inbounds i8, ptr %78, i64 2
  %80 = load i8, ptr %79, align 1, !tbaa !13
  %81 = zext i8 %80 to i32
  %82 = load i8, ptr getelementptr inbounds ([5 x i8], ptr @.str.1, i64 0, i64 2), align 1, !tbaa !13
  %83 = sext i8 %82 to i32
  %84 = icmp eq i32 %81, %83
  br i1 %84, label %85, label %94

85:                                               ; preds = %77
  %86 = load ptr, ptr %3, align 8, !tbaa !25
  %87 = getelementptr inbounds i8, ptr %86, i64 3
  %88 = load i8, ptr %87, align 1, !tbaa !13
  %89 = zext i8 %88 to i32
  %90 = load i8, ptr getelementptr inbounds ([5 x i8], ptr @.str.1, i64 0, i64 3), align 1, !tbaa !13
  %91 = sext i8 %90 to i32
  %92 = icmp eq i32 %89, %91
  br i1 %92, label %93, label %94

93:                                               ; preds = %85
  store i32 1, ptr %2, align 4
  br label %153

94:                                               ; preds = %85, %77, %69, %61
  %95 = load ptr, ptr %3, align 8, !tbaa !25
  %96 = getelementptr inbounds i8, ptr %95, i64 0
  %97 = load i8, ptr %96, align 1, !tbaa !13
  %98 = zext i8 %97 to i32
  %99 = icmp eq i32 %98, 0
  br i1 %99, label %100, label %119

100:                                              ; preds = %94
  %101 = load ptr, ptr %3, align 8, !tbaa !25
  %102 = getelementptr inbounds i8, ptr %101, i64 1
  %103 = load i8, ptr %102, align 1, !tbaa !13
  %104 = zext i8 %103 to i32
  %105 = icmp eq i32 %104, 1
  br i1 %105, label %106, label %119

106:                                              ; preds = %100
  %107 = load ptr, ptr %3, align 8, !tbaa !25
  %108 = getelementptr inbounds i8, ptr %107, i64 2
  %109 = load i8, ptr %108, align 1, !tbaa !13
  %110 = zext i8 %109 to i32
  %111 = icmp eq i32 %110, 0
  br i1 %111, label %112, label %119

112:                                              ; preds = %106
  %113 = load ptr, ptr %3, align 8, !tbaa !25
  %114 = getelementptr inbounds i8, ptr %113, i64 3
  %115 = load i8, ptr %114, align 1, !tbaa !13
  %116 = zext i8 %115 to i32
  %117 = icmp eq i32 %116, 0
  br i1 %117, label %118, label %119

118:                                              ; preds = %112
  store i32 1, ptr %2, align 4
  br label %153

119:                                              ; preds = %112, %106, %100, %94
  %120 = load ptr, ptr %3, align 8, !tbaa !25
  %121 = getelementptr inbounds i8, ptr %120, i64 0
  %122 = load i8, ptr %121, align 1, !tbaa !13
  %123 = zext i8 %122 to i32
  %124 = load i8, ptr @.str.2, align 1, !tbaa !13
  %125 = sext i8 %124 to i32
  %126 = icmp eq i32 %123, %125
  br i1 %126, label %127, label %152

127:                                              ; preds = %119
  %128 = load ptr, ptr %3, align 8, !tbaa !25
  %129 = getelementptr inbounds i8, ptr %128, i64 1
  %130 = load i8, ptr %129, align 1, !tbaa !13
  %131 = zext i8 %130 to i32
  %132 = load i8, ptr getelementptr inbounds ([5 x i8], ptr @.str.2, i64 0, i64 1), align 1, !tbaa !13
  %133 = sext i8 %132 to i32
  %134 = icmp eq i32 %131, %133
  br i1 %134, label %135, label %152

135:                                              ; preds = %127
  %136 = load ptr, ptr %3, align 8, !tbaa !25
  %137 = getelementptr inbounds i8, ptr %136, i64 2
  %138 = load i8, ptr %137, align 1, !tbaa !13
  %139 = zext i8 %138 to i32
  %140 = load i8, ptr getelementptr inbounds ([5 x i8], ptr @.str.2, i64 0, i64 2), align 1, !tbaa !13
  %141 = sext i8 %140 to i32
  %142 = icmp eq i32 %139, %141
  br i1 %142, label %143, label %152

143:                                              ; preds = %135
  %144 = load ptr, ptr %3, align 8, !tbaa !25
  %145 = getelementptr inbounds i8, ptr %144, i64 3
  %146 = load i8, ptr %145, align 1, !tbaa !13
  %147 = zext i8 %146 to i32
  %148 = load i8, ptr getelementptr inbounds ([5 x i8], ptr @.str.2, i64 0, i64 3), align 1, !tbaa !13
  %149 = sext i8 %148 to i32
  %150 = icmp eq i32 %147, %149
  br i1 %150, label %151, label %152

151:                                              ; preds = %143
  store i32 1, ptr %2, align 4
  br label %153

152:                                              ; preds = %143, %135, %127, %119
  store i32 0, ptr %2, align 4
  br label %153

153:                                              ; preds = %152, %151, %118, %93, %60, %27
  %154 = load i32, ptr %2, align 4
  ret i32 %154
}