; Function Attrs: mustprogress nofree norecurse nosync nounwind willreturn memory(argmem: read) uwtable
define range(i32 0, 2) i32 @stbtt__isfont(ptr noundef readonly captures(none) %0) local_unnamed_addr #6 {
  %2 = load i8, ptr %0, align 1, !tbaa !12
  switch i8 %2, label %.thread26 [
    i8 49, label %3
    i8 116, label %15
    i8 79, label %26
    i8 0, label %38
  ]

3:                                                ; preds = %1
  %4 = getelementptr inbounds nuw i8, ptr %0, i64 1
  %5 = load i8, ptr %4, align 1, !tbaa !12
  %6 = icmp eq i8 %5, 0
  br i1 %6, label %7, label %.thread26

7:                                                ; preds = %3
  %8 = getelementptr inbounds nuw i8, ptr %0, i64 2
  %9 = load i8, ptr %8, align 1, !tbaa !12
  %10 = icmp eq i8 %9, 0
  br i1 %10, label %11, label %.thread26

11:                                               ; preds = %7
  %12 = getelementptr inbounds nuw i8, ptr %0, i64 3
  %13 = load i8, ptr %12, align 1, !tbaa !12
  %14 = icmp eq i8 %13, 0
  br i1 %14, label %58, label %.thread26

15:                                               ; preds = %1
  %16 = getelementptr inbounds nuw i8, ptr %0, i64 1
  %17 = load i8, ptr %16, align 1, !tbaa !12
  switch i8 %17, label %.thread26 [
    i8 121, label %18
    i8 114, label %50
  ]

18:                                               ; preds = %15
  %19 = getelementptr inbounds nuw i8, ptr %0, i64 2
  %20 = load i8, ptr %19, align 1, !tbaa !12
  %21 = icmp eq i8 %20, 112
  br i1 %21, label %22, label %.thread26

22:                                               ; preds = %18
  %23 = getelementptr inbounds nuw i8, ptr %0, i64 3
  %24 = load i8, ptr %23, align 1, !tbaa !12
  %25 = icmp eq i8 %24, 49
  br i1 %25, label %58, label %.thread26

26:                                               ; preds = %1
  %27 = getelementptr inbounds nuw i8, ptr %0, i64 1
  %28 = load i8, ptr %27, align 1, !tbaa !12
  %29 = icmp eq i8 %28, 84
  br i1 %29, label %30, label %.thread26

30:                                               ; preds = %26
  %31 = getelementptr inbounds nuw i8, ptr %0, i64 2
  %32 = load i8, ptr %31, align 1, !tbaa !12
  %33 = icmp eq i8 %32, 84
  br i1 %33, label %34, label %.thread26

34:                                               ; preds = %30
  %35 = getelementptr inbounds nuw i8, ptr %0, i64 3
  %36 = load i8, ptr %35, align 1, !tbaa !12
  %37 = icmp eq i8 %36, 79
  br i1 %37, label %58, label %.thread26

38:                                               ; preds = %1
  %39 = getelementptr inbounds nuw i8, ptr %0, i64 1
  %40 = load i8, ptr %39, align 1, !tbaa !12
  %41 = icmp eq i8 %40, 1
  br i1 %41, label %42, label %.thread26

42:                                               ; preds = %38
  %43 = getelementptr inbounds nuw i8, ptr %0, i64 2
  %44 = load i8, ptr %43, align 1, !tbaa !12
  %45 = icmp eq i8 %44, 0
  br i1 %45, label %46, label %.thread26

46:                                               ; preds = %42
  %47 = getelementptr inbounds nuw i8, ptr %0, i64 3
  %48 = load i8, ptr %47, align 1, !tbaa !12
  %49 = icmp eq i8 %48, 0
  br i1 %49, label %58, label %.thread26

50:                                               ; preds = %15
  %51 = getelementptr inbounds nuw i8, ptr %0, i64 2
  %52 = load i8, ptr %51, align 1, !tbaa !12
  %53 = icmp eq i8 %52, 117
  br i1 %53, label %54, label %.thread26

54:                                               ; preds = %50
  %55 = getelementptr inbounds nuw i8, ptr %0, i64 3
  %56 = load i8, ptr %55, align 1, !tbaa !12
  %57 = icmp eq i8 %56, 101
  br i1 %57, label %58, label %.thread26

.thread26:                                        ; preds = %15, %22, %18, %1, %34, %30, %26, %38, %42, %46, %3, %7, %11, %54, %50
  br label %58

58:                                               ; preds = %54, %46, %34, %22, %11, %.thread26
  %.0 = phi i32 [ 0, %.thread26 ], [ 1, %11 ], [ 1, %22 ], [ 1, %34 ], [ 1, %46 ], [ 1, %54 ]
  ret i32 %.0
}